; Function Attrs: nounwind uwtable
define void @ff_msmpeg4_code012(ptr noundef captures(none) %0, i32 noundef %1) local_unnamed_addr #0 {
  %3 = icmp eq i32 %1, 0
  br i1 %3, label %4, label %27

4:                                                ; preds = %2
  %5 = load i32, ptr %0, align 8, !tbaa !4
  %6 = getelementptr inbounds nuw i8, ptr %0, i64 4
  %7 = load i32, ptr %6, align 4, !tbaa !11
  %8 = icmp sgt i32 %7, 1
  br i1 %8, label %9, label %11

9:                                                ; preds = %4
  %10 = shl i32 %5, 1
  br label %put_bits.exit

11:                                               ; preds = %4
  %12 = getelementptr inbounds nuw i8, ptr %0, i64 24
  %13 = load ptr, ptr %12, align 8, !tbaa !12
  %14 = getelementptr inbounds nuw i8, ptr %0, i64 16
  %15 = load ptr, ptr %14, align 8, !tbaa !13
  %16 = ptrtoint ptr %13 to i64
  %17 = ptrtoint ptr %15 to i64
  %18 = sub i64 %16, %17
  %19 = icmp ugt i64 %18, 3
  br i1 %19, label %20, label %25

20:                                               ; preds = %11
  %21 = shl i32 %5, %7
  %22 = tail call i32 @llvm.bswap.i32(i32 %21)
  store i32 %22, ptr %15, align 1, !tbaa !14
  %23 = load ptr, ptr %14, align 8, !tbaa !13
  %24 = getelementptr inbounds nuw i8, ptr %23, i64 4
  store ptr %24, ptr %14, align 8, !tbaa !13
  br label %put_bits.exit

25:                                               ; preds = %11
  tail call void (ptr, i32, ptr, ...) @av_log(ptr noundef null, i32 noundef 16, ptr noundef nonnull @.str.11) #9
  br label %put_bits.exit

put_bits.exit:                                    ; preds = %20, %25, %9
  %.sink = phi i32 [ -1, %9 ], [ 31, %25 ], [ 31, %20 ]
  %.026.i.i = phi i32 [ %10, %9 ], [ 0, %25 ], [ 0, %20 ]
  %26 = add nsw i32 %7, %.sink
  store i32 %.026.i.i, ptr %0, align 8, !tbaa !4
  store i32 %26, ptr %6, align 4, !tbaa !11
  br label %57

27:                                               ; preds = %2
  %28 = icmp sgt i32 %1, 1
  %29 = zext i1 %28 to i32
  %30 = or disjoint i32 %29, 2
  %31 = load i32, ptr %0, align 8, !tbaa !4
  %32 = getelementptr inbounds nuw i8, ptr %0, i64 4
  %33 = load i32, ptr %32, align 4, !tbaa !11
  %34 = icmp sgt i32 %33, 2
  br i1 %34, label %35, label %38

35:                                               ; preds = %27
  %36 = shl i32 %31, 2
  %37 = or disjoint i32 %36, %30
  br label %put_bits.exit6

38:                                               ; preds = %27
  %39 = getelementptr inbounds nuw i8, ptr %0, i64 24
  %40 = load ptr, ptr %39, align 8, !tbaa !12
  %41 = getelementptr inbounds nuw i8, ptr %0, i64 16
  %42 = load ptr, ptr %41, align 8, !tbaa !13
  %43 = ptrtoint ptr %40 to i64
  %44 = ptrtoint ptr %42 to i64
  %45 = sub i64 %43, %44
  %46 = icmp ugt i64 %45, 3
  br i1 %46, label %47, label %55

47:                                               ; preds = %38
  %48 = shl i32 %31, %33
  %49 = sub nsw i32 2, %33
  %50 = lshr i32 %30, %49
  %51 = or i32 %50, %48
  %52 = tail call i32 @llvm.bswap.i32(i32 %51)
  store i32 %52, ptr %42, align 1, !tbaa !14
  %53 = load ptr, ptr %41, align 8, !tbaa !13
  %54 = getelementptr inbounds nuw i8, ptr %53, i64 4
  store ptr %54, ptr %41, align 8, !tbaa !13
  br label %put_bits.exit6

55:                                               ; preds = %38
  tail call void (ptr, i32, ptr, ...) @av_log(ptr noundef null, i32 noundef 16, ptr noundef nonnull @.str.11) #9
  br label %put_bits.exit6

put_bits.exit6:                                   ; preds = %47, %55, %35
  %.sink7 = phi i32 [ -2, %35 ], [ 30, %55 ], [ 30, %47 ]
  %.026.i.i4 = phi i32 [ %37, %35 ], [ %30, %55 ], [ %30, %47 ]
  %56 = add nsw i32 %33, %.sink7
  store i32 %.026.i.i4, ptr %0, align 8, !tbaa !4
  store i32 %56, ptr %32, align 4, !tbaa !11
  br label %57

57:                                               ; preds = %put_bits.exit6, %put_bits.exit
  ret void
}